target datalayout = "e-m:e-p270:32:32-p271:32:32-p272:64:64-i64:64-i128:128-f80:128-n8:16:32:64-S128"
target triple = "x86_64-pc-linux-gnu"

%struct.redisServer = type { i32, i64, ptr, ptr, ptr, i32, i32, i32, i32, i32, ptr, ptr, ptr, ptr, ptr, i32, i32, i32, i32, i64, i32, i32, i32, i32, ptr, i32, i32, [41 x i8], i32, i64, i32, i32, i32, ptr, ptr, i32, i32, i64, ptr, ptr, ptr, ptr, [2 x i32], i32, i32, i32, i32, i32, i32, [16 x ptr], i32, ptr, ptr, i32, [8 x %struct.connListener], i32, %struct.connListener, ptr, ptr, ptr, ptr, ptr, ptr, ptr, ptr, ptr, ptr, i32, ptr, i32, ptr, [3 x %struct.pause_event], [256 x i8], ptr, i64, i32, i32, [128 x i32], i32, i32, i64, i32, i32, i32, i32, i32, i64, i64, i64, i64, i64, i64, i64, i64, i64, i64, double, i64, i64, i64, i64, i64, i64, i64, i64, i64, i64, i64, i64, i64, i64, i64, i64, i64, i64, i64, i64, i64, double, i64, i64, i64, i64, i64, ptr, i64, i64, i64, %struct.malloc_stats, i64, i64, i64, i64, i64, i64, i64, i64, i64, i64, i64, i64, double, [4 x i64], i64, i64, i64, i64, [128 x i64], [128 x i64], i64, i64, [7 x %struct.anon], i64, i64, i64, i64, i64, i64, [4 x %struct.durationStats], i32, i32, i32, i32, i32, i32, i32, i32, i32, i32, i32, i32, i64, i32, i32, i32, i32, i64, i64, i32, i32, i32, i32, i32, ptr, [3 x %struct.clientBufferLimitsConfig], i32, i32, i32, ptr, i32, i32, i32, i32, i32, i32, ptr, ptr, i32, i32, i64, i64, i64, i64, i64, i32, i32, ptr, i32, i32, i64, i64, i64, i64, i64, i32, i32, i64, i32, i32, i32, i32, i32, i32, i32, i32, ptr, i32, i64, i64, i64, i64, i32, ptr, i32, ptr, i32, i32, i32, i64, i64, i64, i64, i32, i32, i32, i32, i32, i32, ptr, i32, i32, ptr, i32, i32, i32, [2 x i32], i32, %struct.redisOpArray, i32, ptr, i32, ptr, i32, i32, i32, i32, i32, i32, i32, [41 x i8], [41 x i8], i64, i64, i64, i64, i32, i32, ptr, i64, i64, %struct.replDataBuf, i64, i64, i32, i32, i32, i32, i32, i32, i32, i32, i32, i64, ptr, i64, ptr, ptr, ptr, i32, i32, ptr, ptr, i32, i32, i32, i64, i64, i64, i64, ptr, ptr, i32, ptr, i64, i32, i32, i32, i64, i32, i32, i32, i32, ptr, i32, i32, [41 x i8], i64, i32, ptr, i32, i32, i64, i64, i32, i32, i32, i32, i32, i64, [3 x i32], i32, i32, i32, [10 x i32], ptr, ptr, i32, i64, ptr, ptr, i32, i32, i32, i32, i64, i64, i64, i64, i64, i64, i64, i64, i64, i64, i32, i32, i64, i64, i32, i64, i64, i64, i64, i64, ptr, ptr, i32, ptr, i32, i32, i32, i32, i64, i64, ptr, ptr, i32, i32, i32, i32, i32, ptr, ptr, ptr, i32, i32, i32, i32, i32, i32, i32, i64, i32, i32, i64, i32, i32, i32, i32, i32, i32, i32, i64, ptr, ptr, i64, ptr, i32, %struct.aclInfo, i32, i64, i32, i32, i32, %struct.redisTLSContextConfig, ptr, ptr, ptr, ptr, ptr, i64, i32, ptr, i32, i32, i32, i64, i32, ptr }
%struct.connListener = type { [16 x i32], i32, ptr, i32, i32, ptr, ptr }
%struct.pause_event = type { i32, i64 }
%struct.malloc_stats = type { i64, i64, i64, i64, i64, i64, i64, i64, i64, i64, i64 }
%struct.anon = type { i64, i64, [16 x i64], i32 }
%struct.durationStats = type { i64, i64, i64 }
%struct.clientBufferLimitsConfig = type { i64, i64, i64 }
%struct.redisOpArray = type { ptr, i32, i32 }
%struct.replDataBuf = type { ptr, i64, i64, i64, i64 }
%struct.aclInfo = type { i64, i64, i64, i64 }
%struct.redisTLSContextConfig = type { ptr, ptr, ptr, ptr, ptr, ptr, ptr, ptr, ptr, ptr, ptr, ptr, i32, i32, i32, i32 }
%struct.zskiplist = type { ptr, ptr, i64, i32 }
%struct.zskiplistNode = type { ptr, double, ptr, [0 x %struct.zskiplistLevel] }
%struct.zskiplistLevel = type { ptr, i64 }

@server = external global %struct.redisServer, align 8
@.str = private unnamed_addr constant [9 x i8] c"defrag.c\00", align 1
@.str.5 = private unnamed_addr constant [41 x i8] c"x && score == x->score && x->ele==oldele\00", align 1

; Function Attrs: nounwind uwtable
define dso_local ptr @activeDefragAlloc(ptr noundef %0) #0 {
  %2 = alloca ptr, align 8
  %3 = alloca ptr, align 8
  %4 = alloca i64, align 8
  %5 = alloca ptr, align 8
  %6 = alloca i32, align 4
  store ptr %0, ptr %3, align 8, !tbaa !5
  call void @llvm.lifetime.start.p0(i64 8, ptr %4) #10
  call void @llvm.lifetime.start.p0(i64 8, ptr %5) #10
  %7 = load ptr, ptr %3, align 8, !tbaa !5
  %8 = call i32 @je_get_defrag_hint(ptr noundef %7)
  %9 = icmp ne i32 %8, 0
  br i1 %9, label %13, label %10

10:                                               ; preds = %1
  %11 = load i64, ptr getelementptr inbounds nuw (%struct.redisServer, ptr @server, i32 0, i32 107), align 8, !tbaa !9
  %12 = add nsw i64 %11, 1
  store i64 %12, ptr getelementptr inbounds nuw (%struct.redisServer, ptr @server, i32 0, i32 107), align 8, !tbaa !9
  store ptr null, ptr %2, align 8
  store i32 1, ptr %6, align 4
  br label %25

13:                                               ; preds = %1
  %14 = load ptr, ptr %3, align 8, !tbaa !5
  %15 = call i64 @je_malloc_usable_size(ptr noundef %14) #10
  store i64 %15, ptr %4, align 8, !tbaa !39
  %16 = load i64, ptr %4, align 8, !tbaa !39
  %17 = call noalias ptr @zmalloc_no_tcache(i64 noundef %16)
  store ptr %17, ptr %5, align 8, !tbaa !5
  %18 = load ptr, ptr %5, align 8, !tbaa !5
  %19 = load ptr, ptr %3, align 8, !tbaa !5
  %20 = load i64, ptr %4, align 8, !tbaa !39
  call void @llvm.memcpy.p0.p0.i64(ptr align 1 %18, ptr align 1 %19, i64 %20, i1 false)
  %21 = load ptr, ptr %3, align 8, !tbaa !5
  call void @zfree_no_tcache(ptr noundef %21)
  %22 = load i64, ptr getelementptr inbounds nuw (%struct.redisServer, ptr @server, i32 0, i32 106), align 8, !tbaa !40
  %23 = add nsw i64 %22, 1
  store i64 %23, ptr getelementptr inbounds nuw (%struct.redisServer, ptr @server, i32 0, i32 106), align 8, !tbaa !40
  %24 = load ptr, ptr %5, align 8, !tbaa !5
  store ptr %24, ptr %2, align 8
  store i32 1, ptr %6, align 4
  br label %25

25:                                               ; preds = %13, %10
  call void @llvm.lifetime.end.p0(i64 8, ptr %5) #10
  call void @llvm.lifetime.end.p0(i64 8, ptr %4) #10
  %26 = load ptr, ptr %2, align 8
  ret ptr %26
}

; Function Attrs: nounwind uwtable
define dso_local ptr @zslDefrag(ptr noundef %0, double noundef %1, ptr noundef %2, ptr noundef %3) #0 {
  %5 = alloca ptr, align 8
  %6 = alloca ptr, align 8
  %7 = alloca double, align 8
  %8 = alloca ptr, align 8
  %9 = alloca ptr, align 8
  %10 = alloca [32 x ptr], align 16
  %11 = alloca ptr, align 8
  %12 = alloca ptr, align 8
  %13 = alloca i32, align 4
  %14 = alloca ptr, align 8
  %15 = alloca i32, align 4
  store ptr %0, ptr %6, align 8, !tbaa !56
  store double %1, ptr %7, align 8, !tbaa !70
  store ptr %2, ptr %8, align 8, !tbaa !41
  store ptr %3, ptr %9, align 8, !tbaa !41
  call void @llvm.lifetime.start.p0(i64 256, ptr %10) #10
  call void @llvm.lifetime.start.p0(i64 8, ptr %11) #10
  call void @llvm.lifetime.start.p0(i64 8, ptr %12) #10
  call void @llvm.lifetime.start.p0(i64 4, ptr %13) #10
  call void @llvm.lifetime.start.p0(i64 8, ptr %14) #10
  %16 = load ptr, ptr %9, align 8, !tbaa !41
  %17 = icmp ne ptr %16, null
  br i1 %17, label %18, label %20

18:                                               ; preds = %4
  %19 = load ptr, ptr %9, align 8, !tbaa !41
  br label %22

20:                                               ; preds = %4
  %21 = load ptr, ptr %8, align 8, !tbaa !41
  br label %22

22:                                               ; preds = %20, %18
  %23 = phi ptr [ %19, %18 ], [ %21, %20 ]
  store ptr %23, ptr %14, align 8, !tbaa !41
  %24 = load ptr, ptr %6, align 8, !tbaa !56
  %25 = getelementptr inbounds nuw %struct.zskiplist, ptr %24, i32 0, i32 0
  %26 = load ptr, ptr %25, align 8, !tbaa !68
  store ptr %26, ptr %11, align 8, !tbaa !58
  %27 = load ptr, ptr %6, align 8, !tbaa !56
  %28 = getelementptr inbounds nuw %struct.zskiplist, ptr %27, i32 0, i32 3
  %29 = load i32, ptr %28, align 8, !tbaa !62
  %30 = sub nsw i32 %29, 1
  store i32 %30, ptr %13, align 4, !tbaa !44
  br label %31

31:                                               ; preds = %112, %22
  %32 = load i32, ptr %13, align 4, !tbaa !44
  %33 = icmp sge i32 %32, 0
  br i1 %33, label %34, label %115

34:                                               ; preds = %31
  br label %35

35:                                               ; preds = %99, %34
  %36 = load ptr, ptr %11, align 8, !tbaa !58
  %37 = getelementptr inbounds nuw %struct.zskiplistNode, ptr %36, i32 0, i32 3
  %38 = load i32, ptr %13, align 4, !tbaa !44
  %39 = sext i32 %38 to i64
  %40 = getelementptr inbounds [0 x %struct.zskiplistLevel], ptr %37, i64 0, i64 %39
  %41 = getelementptr inbounds nuw %struct.zskiplistLevel, ptr %40, i32 0, i32 0
  %42 = load ptr, ptr %41, align 8, !tbaa !64
  %43 = icmp ne ptr %42, null
  br i1 %43, label %44, label %97

44:                                               ; preds = %35
  %45 = load ptr, ptr %11, align 8, !tbaa !58
  %46 = getelementptr inbounds nuw %struct.zskiplistNode, ptr %45, i32 0, i32 3
  %47 = load i32, ptr %13, align 4, !tbaa !44
  %48 = sext i32 %47 to i64
  %49 = getelementptr inbounds [0 x %struct.zskiplistLevel], ptr %46, i64 0, i64 %48
  %50 = getelementptr inbounds nuw %struct.zskiplistLevel, ptr %49, i32 0, i32 0
  %51 = load ptr, ptr %50, align 8, !tbaa !64
  %52 = getelementptr inbounds nuw %struct.zskiplistNode, ptr %51, i32 0, i32 0
  %53 = load ptr, ptr %52, align 8, !tbaa !41
  %54 = load ptr, ptr %8, align 8, !tbaa !41
  %55 = icmp ne ptr %53, %54
  br i1 %55, label %56, label %97

56:                                               ; preds = %44
  %57 = load ptr, ptr %11, align 8, !tbaa !58
  %58 = getelementptr inbounds nuw %struct.zskiplistNode, ptr %57, i32 0, i32 3
  %59 = load i32, ptr %13, align 4, !tbaa !44
  %60 = sext i32 %59 to i64
  %61 = getelementptr inbounds [0 x %struct.zskiplistLevel], ptr %58, i64 0, i64 %60
  %62 = getelementptr inbounds nuw %struct.zskiplistLevel, ptr %61, i32 0, i32 0
  %63 = load ptr, ptr %62, align 8, !tbaa !64
  %64 = getelementptr inbounds nuw %struct.zskiplistNode, ptr %63, i32 0, i32 1
  %65 = load double, ptr %64, align 8, !tbaa !70
  %66 = load double, ptr %7, align 8, !tbaa !70
  %67 = fcmp olt double %65, %66
  br i1 %67, label %95, label %68

68:                                               ; preds = %56
  %69 = load ptr, ptr %11, align 8, !tbaa !58
  %70 = getelementptr inbounds nuw %struct.zskiplistNode, ptr %69, i32 0, i32 3
  %71 = load i32, ptr %13, align 4, !tbaa !44
  %72 = sext i32 %71 to i64
  %73 = getelementptr inbounds [0 x %struct.zskiplistLevel], ptr %70, i64 0, i64 %72
  %74 = getelementptr inbounds nuw %struct.zskiplistLevel, ptr %73, i32 0, i32 0
  %75 = load ptr, ptr %74, align 8, !tbaa !64
  %76 = getelementptr inbounds nuw %struct.zskiplistNode, ptr %75, i32 0, i32 1
  %77 = load double, ptr %76, align 8, !tbaa !70
  %78 = load double, ptr %7, align 8, !tbaa !70
  %79 = fcmp oeq double %77, %78
  br i1 %79, label %80, label %93

80:                                               ; preds = %68
  %81 = load ptr, ptr %11, align 8, !tbaa !58
  %82 = getelementptr inbounds nuw %struct.zskiplistNode, ptr %81, i32 0, i32 3
  %83 = load i32, ptr %13, align 4, !tbaa !44
  %84 = sext i32 %83 to i64
  %85 = getelementptr inbounds [0 x %struct.zskiplistLevel], ptr %82, i64 0, i64 %84
  %86 = getelementptr inbounds nuw %struct.zskiplistLevel, ptr %85, i32 0, i32 0
  %87 = load ptr, ptr %86, align 8, !tbaa !64
  %88 = getelementptr inbounds nuw %struct.zskiplistNode, ptr %87, i32 0, i32 0
  %89 = load ptr, ptr %88, align 8, !tbaa !41
  %90 = load ptr, ptr %14, align 8, !tbaa !41
  %91 = call i32 @sdscmp(ptr noundef %89, ptr noundef %90)
  %92 = icmp slt i32 %91, 0
  br label %93

93:                                               ; preds = %80, %68
  %94 = phi i1 [ false, %68 ], [ %92, %80 ]
  br label %95

95:                                               ; preds = %93, %56
  %96 = phi i1 [ true, %56 ], [ %94, %93 ]
  br label %97

97:                                               ; preds = %95, %44, %35
  %98 = phi i1 [ false, %44 ], [ false, %35 ], [ %96, %95 ]
  br i1 %98, label %99, label %107

99:                                               ; preds = %97
  %100 = load ptr, ptr %11, align 8, !tbaa !58
  %101 = getelementptr inbounds nuw %struct.zskiplistNode, ptr %100, i32 0, i32 3
  %102 = load i32, ptr %13, align 4, !tbaa !44
  %103 = sext i32 %102 to i64
  %104 = getelementptr inbounds [0 x %struct.zskiplistLevel], ptr %101, i64 0, i64 %103
  %105 = getelementptr inbounds nuw %struct.zskiplistLevel, ptr %104, i32 0, i32 0
  %106 = load ptr, ptr %105, align 8, !tbaa !64
  store ptr %106, ptr %11, align 8, !tbaa !58
  br label %35, !llvm.loop !71

107:                                              ; preds = %97
  %108 = load ptr, ptr %11, align 8, !tbaa !58
  %109 = load i32, ptr %13, align 4, !tbaa !44
  %110 = sext i32 %109 to i64
  %111 = getelementptr inbounds [32 x ptr], ptr %10, i64 0, i64 %110
  store ptr %108, ptr %111, align 8, !tbaa !58
  br label %112

112:                                              ; preds = %107
  %113 = load i32, ptr %13, align 4, !tbaa !44
  %114 = add nsw i32 %113, -1
  store i32 %114, ptr %13, align 4, !tbaa !44
  br label %31, !llvm.loop !72

115:                                              ; preds = %31
  %116 = load ptr, ptr %11, align 8, !tbaa !58
  %117 = getelementptr inbounds nuw %struct.zskiplistNode, ptr %116, i32 0, i32 3
  %118 = getelementptr inbounds [0 x %struct.zskiplistLevel], ptr %117, i64 0, i64 0
  %119 = getelementptr inbounds nuw %struct.zskiplistLevel, ptr %118, i32 0, i32 0
  %120 = load ptr, ptr %119, align 8, !tbaa !64
  store ptr %120, ptr %11, align 8, !tbaa !58
  %121 = load ptr, ptr %11, align 8, !tbaa !58
  %122 = icmp ne ptr %121, null
  br i1 %122, label %123, label %135

123:                                              ; preds = %115
  %124 = load double, ptr %7, align 8, !tbaa !70
  %125 = load ptr, ptr %11, align 8, !tbaa !58
  %126 = getelementptr inbounds nuw %struct.zskiplistNode, ptr %125, i32 0, i32 1
  %127 = load double, ptr %126, align 8, !tbaa !70
  %128 = fcmp oeq double %124, %127
  br i1 %128, label %129, label %135

129:                                              ; preds = %123
  %130 = load ptr, ptr %11, align 8, !tbaa !58
  %131 = getelementptr inbounds nuw %struct.zskiplistNode, ptr %130, i32 0, i32 0
  %132 = load ptr, ptr %131, align 8, !tbaa !41
  %133 = load ptr, ptr %8, align 8, !tbaa !41
  %134 = icmp eq ptr %132, %133
  br label %135

135:                                              ; preds = %129, %123, %115
  %136 = phi i1 [ false, %123 ], [ false, %115 ], [ %134, %129 ]
  %137 = xor i1 %136, true
  %138 = xor i1 %137, true
  %139 = zext i1 %138 to i32
  %140 = sext i32 %139 to i64
  %141 = call i64 @llvm.expect.i64(i64 %140, i64 1)
  %142 = icmp ne i64 %141, 0
  br i1 %142, label %143, label %144

143:                                              ; preds = %135
  br label %146

144:                                              ; preds = %135
  call void @_serverAssert(ptr noundef @.str.5, ptr noundef @.str, i32 noundef 243)
  call void @abort() #11
  unreachable

145:                                              ; No predecessors!
  br label %146

146:                                              ; preds = %145, %143
  %147 = load ptr, ptr %9, align 8, !tbaa !41
  %148 = icmp ne ptr %147, null
  br i1 %148, label %149, label %153

149:                                              ; preds = %146
  %150 = load ptr, ptr %9, align 8, !tbaa !41
  %151 = load ptr, ptr %11, align 8, !tbaa !58
  %152 = getelementptr inbounds nuw %struct.zskiplistNode, ptr %151, i32 0, i32 0
  store ptr %150, ptr %152, align 8, !tbaa !41
  br label %153

153:                                              ; preds = %149, %146
  %154 = load ptr, ptr %11, align 8, !tbaa !58
  %155 = call ptr @activeDefragAlloc(ptr noundef %154)
  store ptr %155, ptr %12, align 8, !tbaa !58
  %156 = load ptr, ptr %12, align 8, !tbaa !58
  %157 = icmp ne ptr %156, null
  br i1 %157, label %158, label %165

158:                                              ; preds = %153
  %159 = load ptr, ptr %6, align 8, !tbaa !56
  %160 = load ptr, ptr %11, align 8, !tbaa !58
  %161 = load ptr, ptr %12, align 8, !tbaa !58
  %162 = getelementptr inbounds [32 x ptr], ptr %10, i64 0, i64 0
  call void @zslUpdateNode(ptr noundef %159, ptr noundef %160, ptr noundef %161, ptr noundef %162)
  %163 = load ptr, ptr %12, align 8, !tbaa !58
  %164 = getelementptr inbounds nuw %struct.zskiplistNode, ptr %163, i32 0, i32 1
  store ptr %164, ptr %5, align 8
  store i32 1, ptr %15, align 4
  br label %166

165:                                              ; preds = %153
  store ptr null, ptr %5, align 8
  store i32 1, ptr %15, align 4
  br label %166

166:                                              ; preds = %165, %158
  call void @llvm.lifetime.end.p0(i64 8, ptr %14) #10
  call void @llvm.lifetime.end.p0(i64 4, ptr %13) #10
  call void @llvm.lifetime.end.p0(i64 8, ptr %12) #10
  call void @llvm.lifetime.end.p0(i64 8, ptr %11) #10
  call void @llvm.lifetime.end.p0(i64 256, ptr %10) #10
  %167 = load ptr, ptr %5, align 8
  ret ptr %167
}