; Function Attrs: nounwind uwtable
define dso_local ptr @zslDefrag(ptr noundef captures(none) %0, double noundef %1, ptr noundef %2, ptr noundef %3) local_unnamed_addr #0 {
  %5 = alloca [32 x ptr], align 16
  call void @llvm.lifetime.start.p0(i64 256, ptr nonnull %5) #10
  %.not = icmp eq ptr %3, null
  %6 = select i1 %.not, ptr %2, ptr %3
  %7 = load ptr, ptr %0, align 8, !tbaa !56
  %8 = getelementptr inbounds nuw i8, ptr %0, i64 24
  %9 = load i32, ptr %8, align 8, !tbaa !48
  %10 = icmp sgt i32 %9, 0
  br i1 %10, label %.preheader.preheader, label %._crit_edge

.preheader.preheader:                             ; preds = %4
  %11 = zext nneg i32 %9 to i64
  br label %.preheader

.preheader:                                       ; preds = %.preheader.preheader, %.critedge
  %indvars.iv = phi i64 [ %11, %.preheader.preheader ], [ %indvars.iv.next, %.critedge ]
  %.04372 = phi ptr [ %7, %.preheader.preheader ], [ %.1.lcssa, %.critedge ]
  %indvars.iv.next = add nsw i64 %indvars.iv, -1
  %12 = getelementptr inbounds nuw i8, ptr %.04372, i64 24
  %13 = getelementptr inbounds [0 x %struct.zskiplistLevel], ptr %12, i64 0, i64 %indvars.iv.next
  %14 = load ptr, ptr %13, align 8, !tbaa !52
  %.not5359 = icmp eq ptr %14, null
  br i1 %.not5359, label %.critedge, label %.lr.ph.preheader

.lr.ph.preheader:                                 ; preds = %.preheader
  %15 = load ptr, ptr %14, align 8, !tbaa !60
  %.not5476 = icmp eq ptr %15, %2
  br i1 %.not5476, label %.critedge, label %.lr.ph78

.lr.ph:                                           ; preds = %.critedge2
  %16 = load ptr, ptr %31, align 8, !tbaa !60
  %.not54 = icmp eq ptr %16, %2
  br i1 %.not54, label %.critedge, label %.lr.ph78, !llvm.loop !61

.lr.ph78:                                         ; preds = %.lr.ph.preheader, %.lr.ph
  %17 = phi ptr [ %16, %.lr.ph ], [ %15, %.lr.ph.preheader ]
  %.16077 = phi ptr [ %28, %.lr.ph ], [ %.04372, %.lr.ph.preheader ]
  %18 = phi ptr [ %30, %.lr.ph ], [ %13, %.lr.ph.preheader ]
  %19 = phi ptr [ %31, %.lr.ph ], [ %14, %.lr.ph.preheader ]
  %20 = getelementptr inbounds nuw i8, ptr %19, i64 8
  %21 = load double, ptr %20, align 8, !tbaa !62
  %22 = fcmp olt double %21, %1
  br i1 %22, label %.critedge2, label %23

23:                                               ; preds = %.lr.ph78
  %24 = fcmp oeq double %21, %1
  br i1 %24, label %25, label %.critedge

25:                                               ; preds = %23
  %26 = tail call i32 @sdscmp(ptr noundef %17, ptr noundef %6) #10
  %27 = icmp slt i32 %26, 0
  br i1 %27, label %..critedge2_crit_edge, label %.critedge

..critedge2_crit_edge:                            ; preds = %25
  %.pre = load ptr, ptr %18, align 8, !tbaa !52
  br label %.critedge2

.critedge2:                                       ; preds = %..critedge2_crit_edge, %.lr.ph78
  %28 = phi ptr [ %.pre, %..critedge2_crit_edge ], [ %19, %.lr.ph78 ]
  %29 = getelementptr inbounds nuw i8, ptr %28, i64 24
  %30 = getelementptr inbounds [0 x %struct.zskiplistLevel], ptr %29, i64 0, i64 %indvars.iv.next
  %31 = load ptr, ptr %30, align 8, !tbaa !52
  %.not53 = icmp eq ptr %31, null
  br i1 %.not53, label %.critedge, label %.lr.ph, !llvm.loop !61

.critedge:                                        ; preds = %.lr.ph, %.critedge2, %23, %25, %.lr.ph.preheader, %.preheader
  %.1.lcssa = phi ptr [ %.04372, %.preheader ], [ %.04372, %.lr.ph.preheader ], [ %.16077, %25 ], [ %.16077, %23 ], [ %28, %.critedge2 ], [ %28, %.lr.ph ]
  %32 = getelementptr inbounds [32 x ptr], ptr %5, i64 0, i64 %indvars.iv.next
  store ptr %.1.lcssa, ptr %32, align 8, !tbaa !51
  %33 = icmp sgt i64 %indvars.iv, 1
  br i1 %33, label %.preheader, label %._crit_edge, !llvm.loop !63

._crit_edge:                                      ; preds = %.critedge, %4
  %.043.lcssa = phi ptr [ %7, %4 ], [ %.1.lcssa, %.critedge ]
  %34 = getelementptr inbounds nuw i8, ptr %.043.lcssa, i64 24
  %35 = load ptr, ptr %34, align 8, !tbaa !52
  %.not51 = icmp eq ptr %35, null
  br i1 %.not51, label %.critedge56, label %36, !prof !57

36:                                               ; preds = %._crit_edge
  %37 = getelementptr inbounds nuw i8, ptr %35, i64 8
  %38 = load double, ptr %37, align 8, !tbaa !62
  %39 = fcmp oeq double %1, %38
  br i1 %39, label %40, label %.critedge56, !prof !58

40:                                               ; preds = %36
  %41 = load ptr, ptr %35, align 8, !tbaa !60
  %42 = icmp eq ptr %41, %2
  br i1 %42, label %43, label %.critedge56, !prof !58

.critedge56:                                      ; preds = %36, %._crit_edge, %40
  tail call void @_serverAssert(ptr noundef nonnull @.str.5, ptr noundef nonnull @.str, i32 noundef 243) #10
  tail call void @abort() #11
  unreachable

43:                                               ; preds = %40
  br i1 %.not, label %45, label %44

44:                                               ; preds = %43
  store ptr %3, ptr %35, align 8, !tbaa !60
  br label %45

45:                                               ; preds = %44, %43
  %46 = tail call i32 @je_get_defrag_hint(ptr noundef nonnull %35) #10
  %.not.i = icmp eq i32 %46, 0
  br i1 %.not.i, label %activeDefragAlloc.exit.thread, label %activeDefragAlloc.exit

activeDefragAlloc.exit.thread:                    ; preds = %45
  %47 = load i64, ptr getelementptr inbounds nuw (i8, ptr @server, i64 2592), align 8, !tbaa !5
  %48 = add nsw i64 %47, 1
  store i64 %48, ptr getelementptr inbounds nuw (i8, ptr @server, i64 2592), align 8, !tbaa !5
  br label %55

activeDefragAlloc.exit:                           ; preds = %45
  %49 = tail call i64 @je_malloc_usable_size(ptr noundef nonnull %35) #10
  %50 = tail call noalias ptr @zmalloc_no_tcache(i64 noundef %49) #10
  tail call void @llvm.memcpy.p0.p0.i64(ptr align 1 %50, ptr nonnull align 1 %35, i64 %49, i1 false)
  tail call void @zfree_no_tcache(ptr noundef nonnull %35) #10
  %51 = load i64, ptr getelementptr inbounds nuw (i8, ptr @server, i64 2584), align 8, !tbaa !38
  %52 = add nsw i64 %51, 1
  store i64 %52, ptr getelementptr inbounds nuw (i8, ptr @server, i64 2584), align 8, !tbaa !38
  %.not52 = icmp eq ptr %50, null
  br i1 %.not52, label %55, label %53

53:                                               ; preds = %activeDefragAlloc.exit
  call void @zslUpdateNode(ptr noundef nonnull %0, ptr noundef nonnull %35, ptr noundef nonnull %50, ptr noundef nonnull %5)
  %54 = getelementptr inbounds nuw i8, ptr %50, i64 8
  br label %55

55:                                               ; preds = %activeDefragAlloc.exit.thread, %activeDefragAlloc.exit, %53
  %.0 = phi ptr [ %54, %53 ], [ null, %activeDefragAlloc.exit ], [ null, %activeDefragAlloc.exit.thread ]
  call void @llvm.lifetime.end.p0(i64 256, ptr nonnull %5) #10
  ret ptr %.0
}